ARM GAS  C:\Users\EMBEDD~1\AppData\Local\Temp\ccpcZo3g.s 			page 1


   1              		.cpu cortex-m0plus
   2              		.arch armv6s-m
   3              		.fpu softvfp
   4              		.eabi_attribute 20, 1
   5              		.eabi_attribute 21, 1
   6              		.eabi_attribute 23, 3
   7              		.eabi_attribute 24, 1
   8              		.eabi_attribute 25, 1
   9              		.eabi_attribute 26, 1
  10              		.eabi_attribute 30, 1
  11              		.eabi_attribute 34, 0
  12              		.eabi_attribute 18, 4
  13              		.file	"espressifAT.c"
  14              		.text
  15              	.Ltext0:
  16              		.cfi_sections	.debug_frame
  17              		.section	.text.Esp32_Response,"ax",%progbits
  18              		.align	1
  19              		.global	Esp32_Response
  20              		.syntax unified
  21              		.code	16
  22              		.thumb_func
  24              	Esp32_Response:
  25              	.LVL0:
  26              	.LFB443:
  27              		.file 1 "Src/espressifAT.c"
   1:Src/espressifAT.c **** #include "espressifAT.h"
   2:Src/espressifAT.c **** #include <stdio.h>
   3:Src/espressifAT.c **** #include <stdlib.h>
   4:Src/espressifAT.c **** #include <string.h> 
   5:Src/espressifAT.c **** 
   6:Src/espressifAT.c **** ESP32_StatusTypeDef Esp32_Response(uint8_t *recv_buf, uint8_t *content, uint16_t timeout)
   7:Src/espressifAT.c **** {
  28              		.loc 1 7 1 view -0
  29              		.cfi_startproc
  30              		@ args = 0, pretend = 0, frame = 0
  31              		@ frame_needed = 0, uses_anonymous_args = 0
  32              		.loc 1 7 1 is_stmt 0 view .LVU1
  33 0000 70B5     		push	{r4, r5, r6, lr}
  34              	.LCFI0:
  35              		.cfi_def_cfa_offset 16
  36              		.cfi_offset 4, -16
  37              		.cfi_offset 5, -12
  38              		.cfi_offset 6, -8
  39              		.cfi_offset 14, -4
  40 0002 0600     		movs	r6, r0
  41 0004 0D00     		movs	r5, r1
  42 0006 1400     		movs	r4, r2
  43              	.LVL1:
  44              	.L3:
   8:Src/espressifAT.c **** 	while(1)
  45              		.loc 1 8 2 is_stmt 1 view .LVU2
  46              	.LBB2:
   9:Src/espressifAT.c **** 	{
  10:Src/espressifAT.c **** 		uint8_t *_pStr = (uint8_t*)strstr((char*)recv_buf, (char*)content); 
  47              		.loc 1 10 3 view .LVU3
  48              		.loc 1 10 30 is_stmt 0 view .LVU4
ARM GAS  C:\Users\EMBEDD~1\AppData\Local\Temp\ccpcZo3g.s 			page 2


  49 0008 2900     		movs	r1, r5
  50 000a 3000     		movs	r0, r6
  51 000c FFF7FEFF 		bl	strstr
  52              	.LVL2:
  11:Src/espressifAT.c **** 		if(_pStr != 0) return ESP32_OK; 
  53              		.loc 1 11 3 is_stmt 1 view .LVU5
  54              		.loc 1 11 5 is_stmt 0 view .LVU6
  55 0010 0028     		cmp	r0, #0
  56 0012 08D1     		bne	.L4
  12:Src/espressifAT.c **** 		
  13:Src/espressifAT.c **** 		HAL_Delay(1);
  57              		.loc 1 13 3 is_stmt 1 view .LVU7
  58 0014 0130     		adds	r0, r0, #1
  59              	.LVL3:
  60              		.loc 1 13 3 is_stmt 0 view .LVU8
  61 0016 FFF7FEFF 		bl	HAL_Delay
  62              	.LVL4:
  14:Src/espressifAT.c **** 		timeout--; 
  63              		.loc 1 14 3 is_stmt 1 view .LVU9
  64              		.loc 1 14 10 is_stmt 0 view .LVU10
  65 001a 013C     		subs	r4, r4, #1
  66              	.LVL5:
  67              		.loc 1 14 10 view .LVU11
  68 001c A4B2     		uxth	r4, r4
  69              	.LVL6:
  15:Src/espressifAT.c **** 		if(timeout == 0) return ESP32_ERROR; 
  70              		.loc 1 15 3 is_stmt 1 view .LVU12
  71              		.loc 1 15 5 is_stmt 0 view .LVU13
  72 001e 002C     		cmp	r4, #0
  73 0020 F2D1     		bne	.L3
  74              		.loc 1 15 27 view .LVU14
  75 0022 0020     		movs	r0, #0
  76 0024 00E0     		b	.L2
  77              	.LVL7:
  78              	.L4:
  11:Src/espressifAT.c **** 		
  79              		.loc 1 11 25 view .LVU15
  80 0026 0120     		movs	r0, #1
  81              	.LVL8:
  82              	.L2:
  11:Src/espressifAT.c **** 		
  83              		.loc 1 11 25 view .LVU16
  84              	.LBE2:
  16:Src/espressifAT.c **** 	}
  17:Src/espressifAT.c **** }
  85              		.loc 1 17 1 view .LVU17
  86              		@ sp needed
  87              	.LVL9:
  88              	.LVL10:
  89              	.LVL11:
  90              		.loc 1 17 1 view .LVU18
  91 0028 70BD     		pop	{r4, r5, r6, pc}
  92              		.cfi_endproc
  93              	.LFE443:
  95              		.section	.rodata.RSSI_WiFi.str1.4,"aMS",%progbits,1
  96              		.align	2
  97              	.LC0:
ARM GAS  C:\Users\EMBEDD~1\AppData\Local\Temp\ccpcZo3g.s 			page 3


  98 0000 41542B43 		.ascii	"AT+CWJAP?\015\012\000"
  98      574A4150 
  98      3F0D0A00 
  99              		.section	.text.RSSI_WiFi,"ax",%progbits
 100              		.align	1
 101              		.global	RSSI_WiFi
 102              		.syntax unified
 103              		.code	16
 104              		.thumb_func
 106              	RSSI_WiFi:
 107              	.LVL12:
 108              	.LFB444:
  18:Src/espressifAT.c **** 
  19:Src/espressifAT.c **** int8_t RSSI_WiFi(UART_HandleTypeDef huart, uint8_t *recv_buf)
  20:Src/espressifAT.c **** {
 109              		.loc 1 20 1 is_stmt 1 view -0
 110              		.cfi_startproc
 111              		@ args = 152, pretend = 16, frame = 0
 112              		@ frame_needed = 0, uses_anonymous_args = 0
 113              		.loc 1 20 1 is_stmt 0 view .LVU20
 114 0000 84B0     		sub	sp, sp, #16
 115              	.LCFI1:
 116              		.cfi_def_cfa_offset 16
 117 0002 10B5     		push	{r4, lr}
 118              	.LCFI2:
 119              		.cfi_def_cfa_offset 24
 120              		.cfi_offset 4, -24
 121              		.cfi_offset 14, -20
 122 0004 0290     		str	r0, [sp, #8]
 123 0006 0391     		str	r1, [sp, #12]
 124 0008 0492     		str	r2, [sp, #16]
 125 000a 0593     		str	r3, [sp, #20]
  21:Src/espressifAT.c **** 	uint8_t *pStr_Analysis = 0; 
 126              		.loc 1 21 2 is_stmt 1 view .LVU21
 127              	.LVL13:
  22:Src/espressifAT.c **** 	int8_t val = 0; 
 128              		.loc 1 22 2 view .LVU22
  23:Src/espressifAT.c **** 	
  24:Src/espressifAT.c **** 	HAL_UART_Transmit(&huart, (uint8_t*)"AT+CWJAP?\r\n", strlen("AT+CWJAP?\r\n"), 100); 
 129              		.loc 1 24 2 view .LVU23
 130 000c 6423     		movs	r3, #100
 131 000e 0B22     		movs	r2, #11
 132 0010 0849     		ldr	r1, .L6
 133 0012 02A8     		add	r0, sp, #8
 134 0014 FFF7FEFF 		bl	HAL_UART_Transmit
 135              	.LVL14:
  25:Src/espressifAT.c **** 	HAL_Delay(_ms_); 
 136              		.loc 1 25 2 view .LVU24
 137 0018 6420     		movs	r0, #100
 138 001a FFF7FEFF 		bl	HAL_Delay
 139              	.LVL15:
  26:Src/espressifAT.c **** 	pStr_Analysis = (uint8_t*)strstr((char*)recv_buf, "-"); 
 140              		.loc 1 26 2 view .LVU25
 141              		.loc 1 26 28 is_stmt 0 view .LVU26
 142 001e 2D21     		movs	r1, #45
 143 0020 2798     		ldr	r0, [sp, #156]
 144 0022 FFF7FEFF 		bl	strchr
ARM GAS  C:\Users\EMBEDD~1\AppData\Local\Temp\ccpcZo3g.s 			page 4


 145              	.LVL16:
  27:Src/espressifAT.c **** 	val = atoi((char*)pStr_Analysis);
 146              		.loc 1 27 2 is_stmt 1 view .LVU27
 147              		.loc 1 27 8 is_stmt 0 view .LVU28
 148 0026 FFF7FEFF 		bl	atoi
 149              	.LVL17:
 150              		.loc 1 27 6 view .LVU29
 151 002a 40B2     		sxtb	r0, r0
 152              	.LVL18:
  28:Src/espressifAT.c **** 	return val; 
 153              		.loc 1 28 2 is_stmt 1 view .LVU30
  29:Src/espressifAT.c **** }
 154              		.loc 1 29 1 is_stmt 0 view .LVU31
 155              		@ sp needed
 156 002c 10BC     		pop	{r4}
 157 002e 08BC     		pop	{r3}
 158 0030 04B0     		add	sp, sp, #16
 159 0032 1847     		bx	r3
 160              	.L7:
 161              		.align	2
 162              	.L6:
 163 0034 00000000 		.word	.LC0
 164              		.cfi_endproc
 165              	.LFE444:
 167              		.section	.rodata.Esp32_Check_Version.str1.4,"aMS",%progbits,1
 168              		.align	2
 169              	.LC2:
 170 0000 41542B47 		.ascii	"AT+GMR\015\012\000"
 170      4D520D0A 
 170      00
 171              		.section	.text.Esp32_Check_Version,"ax",%progbits
 172              		.align	1
 173              		.global	Esp32_Check_Version
 174              		.syntax unified
 175              		.code	16
 176              		.thumb_func
 178              	Esp32_Check_Version:
 179              	.LFB445:
  30:Src/espressifAT.c **** 
  31:Src/espressifAT.c **** void Esp32_Check_Version(UART_HandleTypeDef huart)
  32:Src/espressifAT.c **** {
 180              		.loc 1 32 1 is_stmt 1 view -0
 181              		.cfi_startproc
 182              		@ args = 148, pretend = 16, frame = 0
 183              		@ frame_needed = 0, uses_anonymous_args = 0
 184 0000 84B0     		sub	sp, sp, #16
 185              	.LCFI3:
 186              		.cfi_def_cfa_offset 16
 187 0002 10B5     		push	{r4, lr}
 188              	.LCFI4:
 189              		.cfi_def_cfa_offset 24
 190              		.cfi_offset 4, -24
 191              		.cfi_offset 14, -20
 192 0004 0290     		str	r0, [sp, #8]
 193 0006 0391     		str	r1, [sp, #12]
 194 0008 0492     		str	r2, [sp, #16]
 195 000a 0593     		str	r3, [sp, #20]
ARM GAS  C:\Users\EMBEDD~1\AppData\Local\Temp\ccpcZo3g.s 			page 5


  33:Src/espressifAT.c **** 	HAL_UART_Transmit(&huart, (uint8_t*)"AT+GMR\r\n", strlen("AT+GMR\r\n"), 100); 
 196              		.loc 1 33 2 view .LVU33
 197 000c 6423     		movs	r3, #100
 198 000e 0822     		movs	r2, #8
 199 0010 0549     		ldr	r1, .L9
 200 0012 02A8     		add	r0, sp, #8
 201 0014 FFF7FEFF 		bl	HAL_UART_Transmit
 202              	.LVL19:
  34:Src/espressifAT.c **** 	HAL_Delay(_ms_); 
 203              		.loc 1 34 2 view .LVU34
 204 0018 6420     		movs	r0, #100
 205 001a FFF7FEFF 		bl	HAL_Delay
 206              	.LVL20:
  35:Src/espressifAT.c **** }
 207              		.loc 1 35 1 is_stmt 0 view .LVU35
 208              		@ sp needed
 209 001e 10BC     		pop	{r4}
 210 0020 08BC     		pop	{r3}
 211 0022 04B0     		add	sp, sp, #16
 212 0024 1847     		bx	r3
 213              	.L10:
 214 0026 C046     		.align	2
 215              	.L9:
 216 0028 00000000 		.word	.LC2
 217              		.cfi_endproc
 218              	.LFE445:
 220              		.section	.rodata.Esp32_Restart.str1.4,"aMS",%progbits,1
 221              		.align	2
 222              	.LC4:
 223 0000 41542B52 		.ascii	"AT+RST\015\012\000"
 223      53540D0A 
 223      00
 224              		.section	.text.Esp32_Restart,"ax",%progbits
 225              		.align	1
 226              		.global	Esp32_Restart
 227              		.syntax unified
 228              		.code	16
 229              		.thumb_func
 231              	Esp32_Restart:
 232              	.LFB446:
  36:Src/espressifAT.c **** 
  37:Src/espressifAT.c **** void Esp32_Restart(UART_HandleTypeDef huart)
  38:Src/espressifAT.c **** {
 233              		.loc 1 38 1 is_stmt 1 view -0
 234              		.cfi_startproc
 235              		@ args = 148, pretend = 16, frame = 0
 236              		@ frame_needed = 0, uses_anonymous_args = 0
 237 0000 84B0     		sub	sp, sp, #16
 238              	.LCFI5:
 239              		.cfi_def_cfa_offset 16
 240 0002 10B5     		push	{r4, lr}
 241              	.LCFI6:
 242              		.cfi_def_cfa_offset 24
 243              		.cfi_offset 4, -24
 244              		.cfi_offset 14, -20
 245 0004 0290     		str	r0, [sp, #8]
 246 0006 0391     		str	r1, [sp, #12]
ARM GAS  C:\Users\EMBEDD~1\AppData\Local\Temp\ccpcZo3g.s 			page 6


 247 0008 0492     		str	r2, [sp, #16]
 248 000a 0593     		str	r3, [sp, #20]
  39:Src/espressifAT.c **** 	//HAL_UART_Transmit(&huart, (uint8_t*)"AT+RST\r\n", strlen("AT+RST\r\n"), 100); 
  40:Src/espressifAT.c **** 	HAL_UART_Transmit(&huart, (uint8_t*)"AT+RST\r\n", strlen("AT+RST\r\n"), 100); 
 249              		.loc 1 40 2 view .LVU37
 250 000c 6423     		movs	r3, #100
 251 000e 0822     		movs	r2, #8
 252 0010 0549     		ldr	r1, .L12
 253 0012 02A8     		add	r0, sp, #8
 254 0014 FFF7FEFF 		bl	HAL_UART_Transmit
 255              	.LVL21:
  41:Src/espressifAT.c **** 	HAL_Delay(_ms_); 
 256              		.loc 1 41 2 view .LVU38
 257 0018 6420     		movs	r0, #100
 258 001a FFF7FEFF 		bl	HAL_Delay
 259              	.LVL22:
  42:Src/espressifAT.c **** }	
 260              		.loc 1 42 1 is_stmt 0 view .LVU39
 261              		@ sp needed
 262 001e 10BC     		pop	{r4}
 263 0020 08BC     		pop	{r3}
 264 0022 04B0     		add	sp, sp, #16
 265 0024 1847     		bx	r3
 266              	.L13:
 267 0026 C046     		.align	2
 268              	.L12:
 269 0028 00000000 		.word	.LC4
 270              		.cfi_endproc
 271              	.LFE446:
 273              		.section	.rodata.Esp32_Echo.str1.4,"aMS",%progbits,1
 274              		.align	2
 275              	.LC6:
 276 0000 41544531 		.ascii	"ATE1\015\012\000"
 276      0D0A00
 277 0007 00       		.align	2
 278              	.LC8:
 279 0008 41544530 		.ascii	"ATE0\015\012\000"
 279      0D0A00
 280              		.section	.text.Esp32_Echo,"ax",%progbits
 281              		.align	1
 282              		.global	Esp32_Echo
 283              		.syntax unified
 284              		.code	16
 285              		.thumb_func
 287              	Esp32_Echo:
 288              	.LVL23:
 289              	.LFB447:
  43:Src/espressifAT.c **** 
  44:Src/espressifAT.c **** void Esp32_Echo(UART_HandleTypeDef huart, FunctionalState ctrl)
  45:Src/espressifAT.c **** {
 290              		.loc 1 45 1 is_stmt 1 view -0
 291              		.cfi_startproc
 292              		@ args = 152, pretend = 16, frame = 0
 293              		@ frame_needed = 0, uses_anonymous_args = 0
 294              		.loc 1 45 1 is_stmt 0 view .LVU41
 295 0000 84B0     		sub	sp, sp, #16
 296              	.LCFI7:
ARM GAS  C:\Users\EMBEDD~1\AppData\Local\Temp\ccpcZo3g.s 			page 7


 297              		.cfi_def_cfa_offset 16
 298 0002 10B5     		push	{r4, lr}
 299              	.LCFI8:
 300              		.cfi_def_cfa_offset 24
 301              		.cfi_offset 4, -24
 302              		.cfi_offset 14, -20
 303 0004 0290     		str	r0, [sp, #8]
 304 0006 0391     		str	r1, [sp, #12]
 305 0008 0492     		str	r2, [sp, #16]
 306 000a 0593     		str	r3, [sp, #20]
 307 000c 27AB     		add	r3, sp, #156
 308 000e 1B78     		ldrb	r3, [r3]
  46:Src/espressifAT.c **** 	switch(ctrl)
 309              		.loc 1 46 2 is_stmt 1 view .LVU42
 310 0010 002B     		cmp	r3, #0
 311 0012 0ED0     		beq	.L15
 312 0014 012B     		cmp	r3, #1
 313 0016 08D1     		bne	.L14
  47:Src/espressifAT.c **** 	{
  48:Src/espressifAT.c **** 		case ENABLE:
  49:Src/espressifAT.c **** 			HAL_UART_Transmit(&huart, (uint8_t*)"ATE1\r\n", strlen("ATE1\r\n"), 100); 
 314              		.loc 1 49 4 view .LVU43
 315 0018 6333     		adds	r3, r3, #99
 316 001a 0622     		movs	r2, #6
 317 001c 0A49     		ldr	r1, .L17
 318 001e 02A8     		add	r0, sp, #8
 319 0020 FFF7FEFF 		bl	HAL_UART_Transmit
 320              	.LVL24:
  50:Src/espressifAT.c **** 			HAL_Delay(_ms_); 
 321              		.loc 1 50 4 view .LVU44
 322 0024 6420     		movs	r0, #100
 323 0026 FFF7FEFF 		bl	HAL_Delay
 324              	.LVL25:
  51:Src/espressifAT.c **** 			break; 
 325              		.loc 1 51 4 view .LVU45
 326              	.L14:
  52:Src/espressifAT.c **** 		
  53:Src/espressifAT.c **** 		case DISABLE:
  54:Src/espressifAT.c **** 			HAL_UART_Transmit(&huart, (uint8_t*)"ATE0\r\n", strlen("ATE0\r\n"), 100); 
  55:Src/espressifAT.c **** 			HAL_Delay(_ms_); 
  56:Src/espressifAT.c **** 			break; 
  57:Src/espressifAT.c **** 	}
  58:Src/espressifAT.c **** }
 327              		.loc 1 58 1 is_stmt 0 view .LVU46
 328              		@ sp needed
 329 002a 10BC     		pop	{r4}
 330 002c 08BC     		pop	{r3}
 331 002e 04B0     		add	sp, sp, #16
 332 0030 1847     		bx	r3
 333              	.L15:
  54:Src/espressifAT.c **** 			HAL_Delay(_ms_); 
 334              		.loc 1 54 4 is_stmt 1 view .LVU47
 335 0032 6423     		movs	r3, #100
 336 0034 0622     		movs	r2, #6
 337 0036 0549     		ldr	r1, .L17+4
 338 0038 02A8     		add	r0, sp, #8
 339 003a FFF7FEFF 		bl	HAL_UART_Transmit
ARM GAS  C:\Users\EMBEDD~1\AppData\Local\Temp\ccpcZo3g.s 			page 8


 340              	.LVL26:
  55:Src/espressifAT.c **** 			break; 
 341              		.loc 1 55 4 view .LVU48
 342 003e 6420     		movs	r0, #100
 343 0040 FFF7FEFF 		bl	HAL_Delay
 344              	.LVL27:
  56:Src/espressifAT.c **** 	}
 345              		.loc 1 56 4 view .LVU49
 346              		.loc 1 58 1 is_stmt 0 view .LVU50
 347 0044 F1E7     		b	.L14
 348              	.L18:
 349 0046 C046     		.align	2
 350              	.L17:
 351 0048 00000000 		.word	.LC6
 352 004c 08000000 		.word	.LC8
 353              		.cfi_endproc
 354              	.LFE447:
 356              		.section	.rodata.Esp32_WiFiMode.str1.4,"aMS",%progbits,1
 357              		.align	2
 358              	.LC10:
 359 0000 41542B43 		.ascii	"AT+CWMODE=0\015\012\000"
 359      574D4F44 
 359      453D300D 
 359      0A00
 360 000e 0000     		.align	2
 361              	.LC12:
 362 0010 41542B43 		.ascii	"AT+CWMODE=1\015\012\000"
 362      574D4F44 
 362      453D310D 
 362      0A00
 363 001e 0000     		.align	2
 364              	.LC14:
 365 0020 41542B43 		.ascii	"AT+CWMODE=2\015\012\000"
 365      574D4F44 
 365      453D320D 
 365      0A00
 366 002e 0000     		.align	2
 367              	.LC16:
 368 0030 41542B43 		.ascii	"AT+CWMODE=3\015\012\000"
 368      574D4F44 
 368      453D330D 
 368      0A00
 369              		.section	.text.Esp32_WiFiMode,"ax",%progbits
 370              		.align	1
 371              		.global	Esp32_WiFiMode
 372              		.syntax unified
 373              		.code	16
 374              		.thumb_func
 376              	Esp32_WiFiMode:
 377              	.LVL28:
 378              	.LFB448:
  59:Src/espressifAT.c **** 
  60:Src/espressifAT.c **** void Esp32_WiFiMode(UART_HandleTypeDef huart, Mode_HandleTypeDef mode)
  61:Src/espressifAT.c **** {
 379              		.loc 1 61 1 is_stmt 1 view -0
 380              		.cfi_startproc
 381              		@ args = 152, pretend = 16, frame = 0
ARM GAS  C:\Users\EMBEDD~1\AppData\Local\Temp\ccpcZo3g.s 			page 9


 382              		@ frame_needed = 0, uses_anonymous_args = 0
 383              		.loc 1 61 1 is_stmt 0 view .LVU52
 384 0000 84B0     		sub	sp, sp, #16
 385              	.LCFI9:
 386              		.cfi_def_cfa_offset 16
 387 0002 10B5     		push	{r4, lr}
 388              	.LCFI10:
 389              		.cfi_def_cfa_offset 24
 390              		.cfi_offset 4, -24
 391              		.cfi_offset 14, -20
 392 0004 0290     		str	r0, [sp, #8]
 393 0006 0391     		str	r1, [sp, #12]
 394 0008 0492     		str	r2, [sp, #16]
 395 000a 0593     		str	r3, [sp, #20]
 396 000c 27AB     		add	r3, sp, #156
 397 000e 1B78     		ldrb	r3, [r3]
  62:Src/espressifAT.c **** 	switch(mode)
 398              		.loc 1 62 2 is_stmt 1 view .LVU53
 399 0010 022B     		cmp	r3, #2
 400 0012 27D0     		beq	.L20
 401 0014 0DD8     		bhi	.L21
 402 0016 002B     		cmp	r3, #0
 403 0018 17D0     		beq	.L22
 404 001a 012B     		cmp	r3, #1
 405 001c 1ED1     		bne	.L19
  63:Src/espressifAT.c **** 	{
  64:Src/espressifAT.c **** 		case NULL_Mode:
  65:Src/espressifAT.c **** 			HAL_UART_Transmit(&huart, (uint8_t*)"AT+CWMODE=0\r\n", strlen("AT+CWMODE=0\r\n"), 100); 
  66:Src/espressifAT.c **** 			HAL_Delay(_ms_);
  67:Src/espressifAT.c **** 			break; 
  68:Src/espressifAT.c **** 		
  69:Src/espressifAT.c **** 		case STA_Mode:
  70:Src/espressifAT.c **** 			HAL_UART_Transmit(&huart, (uint8_t*)"AT+CWMODE=1\r\n", strlen("AT+CWMODE=1\r\n"), 100); 
 406              		.loc 1 70 4 view .LVU54
 407 001e 6423     		movs	r3, #100
 408 0020 0D22     		movs	r2, #13
 409 0022 1549     		ldr	r1, .L26
 410 0024 02A8     		add	r0, sp, #8
 411 0026 FFF7FEFF 		bl	HAL_UART_Transmit
 412              	.LVL29:
  71:Src/espressifAT.c **** 			HAL_Delay(_ms_);
 413              		.loc 1 71 4 view .LVU55
 414 002a 6420     		movs	r0, #100
 415 002c FFF7FEFF 		bl	HAL_Delay
 416              	.LVL30:
  72:Src/espressifAT.c **** 			break; 
 417              		.loc 1 72 4 view .LVU56
 418 0030 14E0     		b	.L19
 419              	.L21:
  62:Src/espressifAT.c **** 	{
 420              		.loc 1 62 2 is_stmt 0 view .LVU57
 421 0032 032B     		cmp	r3, #3
 422 0034 12D1     		bne	.L19
  73:Src/espressifAT.c **** 		
  74:Src/espressifAT.c **** 		case AP_Mode:
  75:Src/espressifAT.c **** 			HAL_UART_Transmit(&huart, (uint8_t*)"AT+CWMODE=2\r\n", strlen("AT+CWMODE=2\r\n"), 100); 
  76:Src/espressifAT.c **** 			HAL_Delay(_ms_);
ARM GAS  C:\Users\EMBEDD~1\AppData\Local\Temp\ccpcZo3g.s 			page 10


  77:Src/espressifAT.c **** 			break; 
  78:Src/espressifAT.c **** 		
  79:Src/espressifAT.c **** 		case AP_and_STA_Mode:
  80:Src/espressifAT.c **** 			HAL_UART_Transmit(&huart, (uint8_t*)"AT+CWMODE=3\r\n", strlen("AT+CWMODE=3\r\n"), 100); 
 423              		.loc 1 80 4 is_stmt 1 view .LVU58
 424 0036 6423     		movs	r3, #100
 425 0038 0D22     		movs	r2, #13
 426 003a 1049     		ldr	r1, .L26+4
 427 003c 02A8     		add	r0, sp, #8
 428 003e FFF7FEFF 		bl	HAL_UART_Transmit
 429              	.LVL31:
  81:Src/espressifAT.c **** 			HAL_Delay(_ms_);
 430              		.loc 1 81 4 view .LVU59
 431 0042 6420     		movs	r0, #100
 432 0044 FFF7FEFF 		bl	HAL_Delay
 433              	.LVL32:
  82:Src/espressifAT.c **** 			break; 
 434              		.loc 1 82 4 view .LVU60
  83:Src/espressifAT.c **** 	}
  84:Src/espressifAT.c **** }
 435              		.loc 1 84 1 is_stmt 0 view .LVU61
 436 0048 08E0     		b	.L19
 437              	.L22:
  65:Src/espressifAT.c **** 			HAL_Delay(_ms_);
 438              		.loc 1 65 4 is_stmt 1 view .LVU62
 439 004a 6423     		movs	r3, #100
 440 004c 0D22     		movs	r2, #13
 441 004e 0C49     		ldr	r1, .L26+8
 442 0050 02A8     		add	r0, sp, #8
 443 0052 FFF7FEFF 		bl	HAL_UART_Transmit
 444              	.LVL33:
  66:Src/espressifAT.c **** 			break; 
 445              		.loc 1 66 4 view .LVU63
 446 0056 6420     		movs	r0, #100
 447 0058 FFF7FEFF 		bl	HAL_Delay
 448              	.LVL34:
  67:Src/espressifAT.c **** 		
 449              		.loc 1 67 4 view .LVU64
 450              	.L19:
 451              		.loc 1 84 1 is_stmt 0 view .LVU65
 452              		@ sp needed
 453 005c 10BC     		pop	{r4}
 454 005e 08BC     		pop	{r3}
 455 0060 04B0     		add	sp, sp, #16
 456 0062 1847     		bx	r3
 457              	.L20:
  75:Src/espressifAT.c **** 			HAL_Delay(_ms_);
 458              		.loc 1 75 4 is_stmt 1 view .LVU66
 459 0064 6423     		movs	r3, #100
 460 0066 0D22     		movs	r2, #13
 461 0068 0649     		ldr	r1, .L26+12
 462 006a 02A8     		add	r0, sp, #8
 463 006c FFF7FEFF 		bl	HAL_UART_Transmit
 464              	.LVL35:
  76:Src/espressifAT.c **** 			break; 
 465              		.loc 1 76 4 view .LVU67
 466 0070 6420     		movs	r0, #100
ARM GAS  C:\Users\EMBEDD~1\AppData\Local\Temp\ccpcZo3g.s 			page 11


 467 0072 FFF7FEFF 		bl	HAL_Delay
 468              	.LVL36:
  77:Src/espressifAT.c **** 		
 469              		.loc 1 77 4 view .LVU68
 470 0076 F1E7     		b	.L19
 471              	.L27:
 472              		.align	2
 473              	.L26:
 474 0078 10000000 		.word	.LC12
 475 007c 30000000 		.word	.LC16
 476 0080 00000000 		.word	.LC10
 477 0084 20000000 		.word	.LC14
 478              		.cfi_endproc
 479              	.LFE448:
 481              		.section	.rodata.Esp32_Start_SmartConfig.str1.4,"aMS",%progbits,1
 482              		.align	2
 483              	.LC18:
 484 0000 41542B43 		.ascii	"AT+CWSTARTSMART=1\015\012\000"
 484      57535441 
 484      5254534D 
 484      4152543D 
 484      310D0A00 
 485              		.align	2
 486              	.LC20:
 487 0014 41542B43 		.ascii	"AT+CWSTARTSMART=2\015\012\000"
 487      57535441 
 487      5254534D 
 487      4152543D 
 487      320D0A00 
 488              		.align	2
 489              	.LC22:
 490 0028 41542B43 		.ascii	"AT+CWSTARTSMART=3\015\012\000"
 490      57535441 
 490      5254534D 
 490      4152543D 
 490      330D0A00 
 491              		.section	.text.Esp32_Start_SmartConfig,"ax",%progbits
 492              		.align	1
 493              		.global	Esp32_Start_SmartConfig
 494              		.syntax unified
 495              		.code	16
 496              		.thumb_func
 498              	Esp32_Start_SmartConfig:
 499              	.LVL37:
 500              	.LFB449:
  85:Src/espressifAT.c **** 
  86:Src/espressifAT.c **** void Esp32_Start_SmartConfig(UART_HandleTypeDef huart, App_HandleTypeDef app)
  87:Src/espressifAT.c **** {
 501              		.loc 1 87 1 view -0
 502              		.cfi_startproc
 503              		@ args = 152, pretend = 16, frame = 0
 504              		@ frame_needed = 0, uses_anonymous_args = 0
 505              		.loc 1 87 1 is_stmt 0 view .LVU70
 506 0000 84B0     		sub	sp, sp, #16
 507              	.LCFI11:
 508              		.cfi_def_cfa_offset 16
 509 0002 10B5     		push	{r4, lr}
ARM GAS  C:\Users\EMBEDD~1\AppData\Local\Temp\ccpcZo3g.s 			page 12


 510              	.LCFI12:
 511              		.cfi_def_cfa_offset 24
 512              		.cfi_offset 4, -24
 513              		.cfi_offset 14, -20
 514 0004 0290     		str	r0, [sp, #8]
 515 0006 0391     		str	r1, [sp, #12]
 516 0008 0492     		str	r2, [sp, #16]
 517 000a 0593     		str	r3, [sp, #20]
 518 000c 27AB     		add	r3, sp, #156
 519 000e 1B78     		ldrb	r3, [r3]
  88:Src/espressifAT.c **** 	switch(app)
 520              		.loc 1 88 2 is_stmt 1 view .LVU71
 521 0010 012B     		cmp	r3, #1
 522 0012 11D0     		beq	.L29
 523 0014 032B     		cmp	r3, #3
 524 0016 19D0     		beq	.L30
 525 0018 002B     		cmp	r3, #0
 526 001a 03D0     		beq	.L32
 527              	.L28:
  89:Src/espressifAT.c **** 	{
  90:Src/espressifAT.c **** 		case ESP_TOUCH_App:
  91:Src/espressifAT.c **** 			HAL_UART_Transmit(&huart, (uint8_t*)"AT+CWSTARTSMART=1\r\n", strlen("AT+CWSTARTSMART=1\r\n"), 10
  92:Src/espressifAT.c **** 			HAL_Delay(_ms_);
  93:Src/espressifAT.c **** 			break; 
  94:Src/espressifAT.c **** 		
  95:Src/espressifAT.c **** 		case AIRKISS_App:
  96:Src/espressifAT.c **** 			HAL_UART_Transmit(&huart, (uint8_t*)"AT+CWSTARTSMART=2\r\n", strlen("AT+CWSTARTSMART=2\r\n"), 10
  97:Src/espressifAT.c **** 			HAL_Delay(_ms_);
  98:Src/espressifAT.c **** 			break;
  99:Src/espressifAT.c **** 		
 100:Src/espressifAT.c **** 		case TOUTCH_and_AIRKISS_App:
 101:Src/espressifAT.c **** 			HAL_UART_Transmit(&huart, (uint8_t*)"AT+CWSTARTSMART=3\r\n", strlen("AT+CWSTARTSMART=3\r\n"), 10
 102:Src/espressifAT.c **** 			HAL_Delay(_ms_);
 103:Src/espressifAT.c **** 			break; 
 104:Src/espressifAT.c **** 	}
 105:Src/espressifAT.c **** }
 528              		.loc 1 105 1 is_stmt 0 view .LVU72
 529              		@ sp needed
 530 001c 10BC     		pop	{r4}
 531 001e 08BC     		pop	{r3}
 532 0020 04B0     		add	sp, sp, #16
 533 0022 1847     		bx	r3
 534              	.L32:
  91:Src/espressifAT.c **** 			HAL_Delay(_ms_);
 535              		.loc 1 91 4 is_stmt 1 view .LVU73
 536 0024 6433     		adds	r3, r3, #100
 537 0026 1322     		movs	r2, #19
 538 0028 0D49     		ldr	r1, .L33
 539 002a 02A8     		add	r0, sp, #8
 540 002c FFF7FEFF 		bl	HAL_UART_Transmit
 541              	.LVL38:
  92:Src/espressifAT.c **** 			break; 
 542              		.loc 1 92 4 view .LVU74
 543 0030 6420     		movs	r0, #100
 544 0032 FFF7FEFF 		bl	HAL_Delay
 545              	.LVL39:
  93:Src/espressifAT.c **** 		
ARM GAS  C:\Users\EMBEDD~1\AppData\Local\Temp\ccpcZo3g.s 			page 13


 546              		.loc 1 93 4 view .LVU75
 547 0036 F1E7     		b	.L28
 548              	.L29:
  96:Src/espressifAT.c **** 			HAL_Delay(_ms_);
 549              		.loc 1 96 4 view .LVU76
 550 0038 6423     		movs	r3, #100
 551 003a 1322     		movs	r2, #19
 552 003c 0949     		ldr	r1, .L33+4
 553 003e 02A8     		add	r0, sp, #8
 554 0040 FFF7FEFF 		bl	HAL_UART_Transmit
 555              	.LVL40:
  97:Src/espressifAT.c **** 			break;
 556              		.loc 1 97 4 view .LVU77
 557 0044 6420     		movs	r0, #100
 558 0046 FFF7FEFF 		bl	HAL_Delay
 559              	.LVL41:
  98:Src/espressifAT.c **** 		
 560              		.loc 1 98 4 view .LVU78
 561 004a E7E7     		b	.L28
 562              	.L30:
 101:Src/espressifAT.c **** 			HAL_Delay(_ms_);
 563              		.loc 1 101 4 view .LVU79
 564 004c 6423     		movs	r3, #100
 565 004e 1322     		movs	r2, #19
 566 0050 0549     		ldr	r1, .L33+8
 567 0052 02A8     		add	r0, sp, #8
 568 0054 FFF7FEFF 		bl	HAL_UART_Transmit
 569              	.LVL42:
 102:Src/espressifAT.c **** 			break; 
 570              		.loc 1 102 4 view .LVU80
 571 0058 6420     		movs	r0, #100
 572 005a FFF7FEFF 		bl	HAL_Delay
 573              	.LVL43:
 103:Src/espressifAT.c **** 	}
 574              		.loc 1 103 4 view .LVU81
 575              		.loc 1 105 1 is_stmt 0 view .LVU82
 576 005e DDE7     		b	.L28
 577              	.L34:
 578              		.align	2
 579              	.L33:
 580 0060 00000000 		.word	.LC18
 581 0064 14000000 		.word	.LC20
 582 0068 28000000 		.word	.LC22
 583              		.cfi_endproc
 584              	.LFE449:
 586              		.section	.rodata.Esp32_Stop_SmartConfig.str1.4,"aMS",%progbits,1
 587              		.align	2
 588              	.LC24:
 589 0000 41542B43 		.ascii	"AT+CWSTOPSMART\015\012\000"
 589      5753544F 
 589      50534D41 
 589      52540D0A 
 589      00
 590              		.section	.text.Esp32_Stop_SmartConfig,"ax",%progbits
 591              		.align	1
 592              		.global	Esp32_Stop_SmartConfig
 593              		.syntax unified
ARM GAS  C:\Users\EMBEDD~1\AppData\Local\Temp\ccpcZo3g.s 			page 14


 594              		.code	16
 595              		.thumb_func
 597              	Esp32_Stop_SmartConfig:
 598              	.LFB450:
 106:Src/espressifAT.c **** 
 107:Src/espressifAT.c **** void Esp32_Stop_SmartConfig(UART_HandleTypeDef huart)
 108:Src/espressifAT.c **** {
 599              		.loc 1 108 1 is_stmt 1 view -0
 600              		.cfi_startproc
 601              		@ args = 148, pretend = 16, frame = 0
 602              		@ frame_needed = 0, uses_anonymous_args = 0
 603 0000 84B0     		sub	sp, sp, #16
 604              	.LCFI13:
 605              		.cfi_def_cfa_offset 16
 606 0002 10B5     		push	{r4, lr}
 607              	.LCFI14:
 608              		.cfi_def_cfa_offset 24
 609              		.cfi_offset 4, -24
 610              		.cfi_offset 14, -20
 611 0004 0290     		str	r0, [sp, #8]
 612 0006 0391     		str	r1, [sp, #12]
 613 0008 0492     		str	r2, [sp, #16]
 614 000a 0593     		str	r3, [sp, #20]
 109:Src/espressifAT.c **** 	HAL_UART_Transmit(&huart, (uint8_t*)"AT+CWSTOPSMART\r\n", strlen("AT+CWSTOPSMART\r\n"), 100); 
 615              		.loc 1 109 2 view .LVU84
 616 000c 6423     		movs	r3, #100
 617 000e 1022     		movs	r2, #16
 618 0010 0549     		ldr	r1, .L36
 619 0012 02A8     		add	r0, sp, #8
 620 0014 FFF7FEFF 		bl	HAL_UART_Transmit
 621              	.LVL44:
 110:Src/espressifAT.c **** 	HAL_Delay(_ms_);
 622              		.loc 1 110 2 view .LVU85
 623 0018 6420     		movs	r0, #100
 624 001a FFF7FEFF 		bl	HAL_Delay
 625              	.LVL45:
 111:Src/espressifAT.c **** }
 626              		.loc 1 111 1 is_stmt 0 view .LVU86
 627              		@ sp needed
 628 001e 10BC     		pop	{r4}
 629 0020 08BC     		pop	{r3}
 630 0022 04B0     		add	sp, sp, #16
 631 0024 1847     		bx	r3
 632              	.L37:
 633 0026 C046     		.align	2
 634              	.L36:
 635 0028 00000000 		.word	.LC24
 636              		.cfi_endproc
 637              	.LFE450:
 639              		.section	.text.Esp32_Check_Info_WiFi,"ax",%progbits
 640              		.align	1
 641              		.global	Esp32_Check_Info_WiFi
 642              		.syntax unified
 643              		.code	16
 644              		.thumb_func
 646              	Esp32_Check_Info_WiFi:
 647              	.LFB451:
ARM GAS  C:\Users\EMBEDD~1\AppData\Local\Temp\ccpcZo3g.s 			page 15


 112:Src/espressifAT.c **** 
 113:Src/espressifAT.c **** void Esp32_Check_Info_WiFi(UART_HandleTypeDef huart)
 114:Src/espressifAT.c **** {
 648              		.loc 1 114 1 is_stmt 1 view -0
 649              		.cfi_startproc
 650              		@ args = 148, pretend = 16, frame = 0
 651              		@ frame_needed = 0, uses_anonymous_args = 0
 652 0000 84B0     		sub	sp, sp, #16
 653              	.LCFI15:
 654              		.cfi_def_cfa_offset 16
 655 0002 10B5     		push	{r4, lr}
 656              	.LCFI16:
 657              		.cfi_def_cfa_offset 24
 658              		.cfi_offset 4, -24
 659              		.cfi_offset 14, -20
 660 0004 0290     		str	r0, [sp, #8]
 661 0006 0391     		str	r1, [sp, #12]
 662 0008 0492     		str	r2, [sp, #16]
 663 000a 0593     		str	r3, [sp, #20]
 115:Src/espressifAT.c **** 	HAL_UART_Transmit(&huart, (uint8_t*)"AT+CWJAP?\r\n", strlen("AT+CWJAP?\r\n"), 100); 
 664              		.loc 1 115 2 view .LVU88
 665 000c 6423     		movs	r3, #100
 666 000e 0B22     		movs	r2, #11
 667 0010 0549     		ldr	r1, .L39
 668 0012 02A8     		add	r0, sp, #8
 669 0014 FFF7FEFF 		bl	HAL_UART_Transmit
 670              	.LVL46:
 116:Src/espressifAT.c **** 	HAL_Delay(_ms_); 
 671              		.loc 1 116 2 view .LVU89
 672 0018 6420     		movs	r0, #100
 673 001a FFF7FEFF 		bl	HAL_Delay
 674              	.LVL47:
 117:Src/espressifAT.c **** }
 675              		.loc 1 117 1 is_stmt 0 view .LVU90
 676              		@ sp needed
 677 001e 10BC     		pop	{r4}
 678 0020 08BC     		pop	{r3}
 679 0022 04B0     		add	sp, sp, #16
 680 0024 1847     		bx	r3
 681              	.L40:
 682 0026 C046     		.align	2
 683              	.L39:
 684 0028 00000000 		.word	.LC0
 685              		.cfi_endproc
 686              	.LFE451:
 688              		.section	.rodata.Esp32_Setup_Default.str1.4,"aMS",%progbits,1
 689              		.align	2
 690              	.LC27:
 691 0000 41542B52 		.ascii	"AT+RESTORE\015\012\000"
 691      4553544F 
 691      52450D0A 
 691      00
 692              		.section	.text.Esp32_Setup_Default,"ax",%progbits
 693              		.align	1
 694              		.global	Esp32_Setup_Default
 695              		.syntax unified
 696              		.code	16
ARM GAS  C:\Users\EMBEDD~1\AppData\Local\Temp\ccpcZo3g.s 			page 16


 697              		.thumb_func
 699              	Esp32_Setup_Default:
 700              	.LFB452:
 118:Src/espressifAT.c **** 
 119:Src/espressifAT.c **** void Esp32_Setup_Default(UART_HandleTypeDef huart)
 120:Src/espressifAT.c **** {
 701              		.loc 1 120 1 is_stmt 1 view -0
 702              		.cfi_startproc
 703              		@ args = 148, pretend = 16, frame = 0
 704              		@ frame_needed = 0, uses_anonymous_args = 0
 705 0000 84B0     		sub	sp, sp, #16
 706              	.LCFI17:
 707              		.cfi_def_cfa_offset 16
 708 0002 10B5     		push	{r4, lr}
 709              	.LCFI18:
 710              		.cfi_def_cfa_offset 24
 711              		.cfi_offset 4, -24
 712              		.cfi_offset 14, -20
 713 0004 0290     		str	r0, [sp, #8]
 714 0006 0391     		str	r1, [sp, #12]
 715 0008 0492     		str	r2, [sp, #16]
 716 000a 0593     		str	r3, [sp, #20]
 121:Src/espressifAT.c ****   	HAL_UART_Transmit(&huart, (uint8_t*)"AT+RESTORE\r\n", strlen("AT+RESTORE\r\n"), 100); 
 717              		.loc 1 121 4 view .LVU92
 718 000c 6423     		movs	r3, #100
 719 000e 0C22     		movs	r2, #12
 720 0010 0549     		ldr	r1, .L42
 721 0012 02A8     		add	r0, sp, #8
 722 0014 FFF7FEFF 		bl	HAL_UART_Transmit
 723              	.LVL48:
 122:Src/espressifAT.c ****   	HAL_Delay(_ms_); 
 724              		.loc 1 122 4 view .LVU93
 725 0018 6420     		movs	r0, #100
 726 001a FFF7FEFF 		bl	HAL_Delay
 727              	.LVL49:
 123:Src/espressifAT.c **** }
 728              		.loc 1 123 1 is_stmt 0 view .LVU94
 729              		@ sp needed
 730 001e 10BC     		pop	{r4}
 731 0020 08BC     		pop	{r3}
 732 0022 04B0     		add	sp, sp, #16
 733 0024 1847     		bx	r3
 734              	.L43:
 735 0026 C046     		.align	2
 736              	.L42:
 737 0028 00000000 		.word	.LC27
 738              		.cfi_endproc
 739              	.LFE452:
 741              		.section	.rodata.Esp32_Mqtt_UserConfig.str1.4,"aMS",%progbits,1
 742              		.align	2
 743              	.LC29:
 744 0000 41542B4D 		.ascii	"AT+MQTTUSERCFG=0,1,\"%s\",\"%s\",\"%s\",0,0,\"\"\015"
 744      51545455 
 744      53455243 
 744      46473D30 
 744      2C312C22 
 745 0029 0A00     		.ascii	"\012\000"
ARM GAS  C:\Users\EMBEDD~1\AppData\Local\Temp\ccpcZo3g.s 			page 17


 746              		.section	.text.Esp32_Mqtt_UserConfig,"ax",%progbits
 747              		.align	1
 748              		.global	Esp32_Mqtt_UserConfig
 749              		.syntax unified
 750              		.code	16
 751              		.thumb_func
 753              	Esp32_Mqtt_UserConfig:
 754              	.LVL50:
 755              	.LFB453:
 124:Src/espressifAT.c **** 
 125:Src/espressifAT.c **** void Esp32_Mqtt_UserConfig(UART_HandleTypeDef huart, uint8_t *id, uint8_t *username, uint8_t *passw
 126:Src/espressifAT.c **** {
 756              		.loc 1 126 1 is_stmt 1 view -0
 757              		.cfi_startproc
 758              		@ args = 160, pretend = 16, frame = 304
 759              		@ frame_needed = 0, uses_anonymous_args = 0
 760              		.loc 1 126 1 is_stmt 0 view .LVU96
 761 0000 84B0     		sub	sp, sp, #16
 762              	.LCFI19:
 763              		.cfi_def_cfa_offset 16
 764 0002 00B5     		push	{lr}
 765              	.LCFI20:
 766              		.cfi_def_cfa_offset 20
 767              		.cfi_offset 14, -20
 768 0004 CFB0     		sub	sp, sp, #316
 769              	.LCFI21:
 770              		.cfi_def_cfa_offset 336
 771 0006 5090     		str	r0, [sp, #320]
 772 0008 5191     		str	r1, [sp, #324]
 773 000a 5292     		str	r2, [sp, #328]
 774 000c 5393     		str	r3, [sp, #332]
 127:Src/espressifAT.c **** 	uint8_t messages[300]; 
 775              		.loc 1 127 2 is_stmt 1 view .LVU97
 128:Src/espressifAT.c **** 	sprintf((char*)messages, "AT+MQTTUSERCFG=0,1,\"%s\",\"%s\",\"%s\",0,0,\"\"\r\n", id, username, pas
 776              		.loc 1 128 2 view .LVU98
 777 000e 779B     		ldr	r3, [sp, #476]
 778 0010 0093     		str	r3, [sp]
 779 0012 769B     		ldr	r3, [sp, #472]
 780 0014 759A     		ldr	r2, [sp, #468]
 781 0016 0A49     		ldr	r1, .L45
 782 0018 03A8     		add	r0, sp, #12
 783 001a FFF7FEFF 		bl	sprintf
 784              	.LVL51:
 129:Src/espressifAT.c **** 	HAL_UART_Transmit(&huart, messages, strlen((char*)messages), 100); 
 785              		.loc 1 129 2 view .LVU99
 786              		.loc 1 129 38 is_stmt 0 view .LVU100
 787 001e 03A8     		add	r0, sp, #12
 788 0020 FFF7FEFF 		bl	strlen
 789              	.LVL52:
 790              		.loc 1 129 2 view .LVU101
 791 0024 82B2     		uxth	r2, r0
 792 0026 6423     		movs	r3, #100
 793 0028 03A9     		add	r1, sp, #12
 794 002a 50A8     		add	r0, sp, #320
 795 002c FFF7FEFF 		bl	HAL_UART_Transmit
 796              	.LVL53:
 130:Src/espressifAT.c **** 	HAL_Delay(_ms_);
ARM GAS  C:\Users\EMBEDD~1\AppData\Local\Temp\ccpcZo3g.s 			page 18


 797              		.loc 1 130 2 is_stmt 1 view .LVU102
 798 0030 6420     		movs	r0, #100
 799 0032 FFF7FEFF 		bl	HAL_Delay
 800              	.LVL54:
 131:Src/espressifAT.c **** }
 801              		.loc 1 131 1 is_stmt 0 view .LVU103
 802 0036 4FB0     		add	sp, sp, #316
 803              		@ sp needed
 804 0038 08BC     		pop	{r3}
 805 003a 04B0     		add	sp, sp, #16
 806 003c 1847     		bx	r3
 807              	.L46:
 808 003e C046     		.align	2
 809              	.L45:
 810 0040 00000000 		.word	.LC29
 811              		.cfi_endproc
 812              	.LFE453:
 814              		.section	.rodata.Esp32_Mqtt_Connect_Broker.str1.4,"aMS",%progbits,1
 815              		.align	2
 816              	.LC31:
 817 0000 41542B4D 		.ascii	"AT+MQTTCONN=0,\"%s\",%d,0\015\012\000"
 817      51545443 
 817      4F4E4E3D 
 817      302C2225 
 817      73222C25 
 818              		.section	.text.Esp32_Mqtt_Connect_Broker,"ax",%progbits
 819              		.align	1
 820              		.global	Esp32_Mqtt_Connect_Broker
 821              		.syntax unified
 822              		.code	16
 823              		.thumb_func
 825              	Esp32_Mqtt_Connect_Broker:
 826              	.LVL55:
 827              	.LFB454:
 132:Src/espressifAT.c **** 
 133:Src/espressifAT.c **** void Esp32_Mqtt_Connect_Broker(UART_HandleTypeDef huart, uint8_t *host, uint16_t port)
 134:Src/espressifAT.c **** {
 828              		.loc 1 134 1 is_stmt 1 view -0
 829              		.cfi_startproc
 830              		@ args = 156, pretend = 16, frame = 304
 831              		@ frame_needed = 0, uses_anonymous_args = 0
 832              		.loc 1 134 1 is_stmt 0 view .LVU105
 833 0000 84B0     		sub	sp, sp, #16
 834              	.LCFI22:
 835              		.cfi_def_cfa_offset 16
 836 0002 00B5     		push	{lr}
 837              	.LCFI23:
 838              		.cfi_def_cfa_offset 20
 839              		.cfi_offset 14, -20
 840 0004 CDB0     		sub	sp, sp, #308
 841              	.LCFI24:
 842              		.cfi_def_cfa_offset 328
 843 0006 4E90     		str	r0, [sp, #312]
 844 0008 4F91     		str	r1, [sp, #316]
 845 000a 5092     		str	r2, [sp, #320]
 846 000c 5193     		str	r3, [sp, #324]
 847 000e 74AB     		add	r3, sp, #464
ARM GAS  C:\Users\EMBEDD~1\AppData\Local\Temp\ccpcZo3g.s 			page 19


 848 0010 1B88     		ldrh	r3, [r3]
 135:Src/espressifAT.c ****     uint8_t messages[300];
 849              		.loc 1 135 5 is_stmt 1 view .LVU106
 136:Src/espressifAT.c **** 	sprintf((char*)messages, "AT+MQTTCONN=0,\"%s\",%d,0\r\n", host, port);
 850              		.loc 1 136 2 view .LVU107
 851 0012 739A     		ldr	r2, [sp, #460]
 852 0014 0949     		ldr	r1, .L48
 853 0016 01A8     		add	r0, sp, #4
 854 0018 FFF7FEFF 		bl	sprintf
 855              	.LVL56:
 137:Src/espressifAT.c ****     HAL_UART_Transmit(&huart, messages, strlen((char*)messages), 100);
 856              		.loc 1 137 5 view .LVU108
 857              		.loc 1 137 41 is_stmt 0 view .LVU109
 858 001c 01A8     		add	r0, sp, #4
 859 001e FFF7FEFF 		bl	strlen
 860              	.LVL57:
 861              		.loc 1 137 5 view .LVU110
 862 0022 82B2     		uxth	r2, r0
 863 0024 6423     		movs	r3, #100
 864 0026 01A9     		add	r1, sp, #4
 865 0028 4EA8     		add	r0, sp, #312
 866 002a FFF7FEFF 		bl	HAL_UART_Transmit
 867              	.LVL58:
 138:Src/espressifAT.c ****     HAL_Delay(_ms_);
 868              		.loc 1 138 5 is_stmt 1 view .LVU111
 869 002e 6420     		movs	r0, #100
 870 0030 FFF7FEFF 		bl	HAL_Delay
 871              	.LVL59:
 139:Src/espressifAT.c **** }
 872              		.loc 1 139 1 is_stmt 0 view .LVU112
 873 0034 4DB0     		add	sp, sp, #308
 874              		@ sp needed
 875 0036 08BC     		pop	{r3}
 876 0038 04B0     		add	sp, sp, #16
 877 003a 1847     		bx	r3
 878              	.L49:
 879              		.align	2
 880              	.L48:
 881 003c 00000000 		.word	.LC31
 882              		.cfi_endproc
 883              	.LFE454:
 885              		.section	.rodata.Esp32_Mqtt_Disconnect_Broker.str1.4,"aMS",%progbits,1
 886              		.align	2
 887              	.LC33:
 888 0000 41542B4D 		.ascii	"AT+MQTTCLEAN=0\015\012\000"
 888      51545443 
 888      4C45414E 
 888      3D300D0A 
 888      00
 889              		.section	.text.Esp32_Mqtt_Disconnect_Broker,"ax",%progbits
 890              		.align	1
 891              		.global	Esp32_Mqtt_Disconnect_Broker
 892              		.syntax unified
 893              		.code	16
 894              		.thumb_func
 896              	Esp32_Mqtt_Disconnect_Broker:
 897              	.LFB455:
ARM GAS  C:\Users\EMBEDD~1\AppData\Local\Temp\ccpcZo3g.s 			page 20


 140:Src/espressifAT.c **** 
 141:Src/espressifAT.c **** void Esp32_Mqtt_Disconnect_Broker(UART_HandleTypeDef huart)
 142:Src/espressifAT.c **** {
 898              		.loc 1 142 1 is_stmt 1 view -0
 899              		.cfi_startproc
 900              		@ args = 148, pretend = 16, frame = 0
 901              		@ frame_needed = 0, uses_anonymous_args = 0
 902 0000 84B0     		sub	sp, sp, #16
 903              	.LCFI25:
 904              		.cfi_def_cfa_offset 16
 905 0002 10B5     		push	{r4, lr}
 906              	.LCFI26:
 907              		.cfi_def_cfa_offset 24
 908              		.cfi_offset 4, -24
 909              		.cfi_offset 14, -20
 910 0004 0290     		str	r0, [sp, #8]
 911 0006 0391     		str	r1, [sp, #12]
 912 0008 0492     		str	r2, [sp, #16]
 913 000a 0593     		str	r3, [sp, #20]
 143:Src/espressifAT.c ****     HAL_UART_Transmit(&huart, (uint8_t*)"AT+MQTTCLEAN=0\r\n", strlen("AT+MQTTCLEAN=0\r\n"), 100); 
 914              		.loc 1 143 5 view .LVU114
 915 000c 6423     		movs	r3, #100
 916 000e 1022     		movs	r2, #16
 917 0010 0549     		ldr	r1, .L51
 918 0012 02A8     		add	r0, sp, #8
 919 0014 FFF7FEFF 		bl	HAL_UART_Transmit
 920              	.LVL60:
 144:Src/espressifAT.c ****     HAL_Delay(_ms_);
 921              		.loc 1 144 5 view .LVU115
 922 0018 6420     		movs	r0, #100
 923 001a FFF7FEFF 		bl	HAL_Delay
 924              	.LVL61:
 145:Src/espressifAT.c **** }
 925              		.loc 1 145 1 is_stmt 0 view .LVU116
 926              		@ sp needed
 927 001e 10BC     		pop	{r4}
 928 0020 08BC     		pop	{r3}
 929 0022 04B0     		add	sp, sp, #16
 930 0024 1847     		bx	r3
 931              	.L52:
 932 0026 C046     		.align	2
 933              	.L51:
 934 0028 00000000 		.word	.LC33
 935              		.cfi_endproc
 936              	.LFE455:
 938              		.section	.rodata.Esp32_Mqtt_Subscribe.str1.4,"aMS",%progbits,1
 939              		.align	2
 940              	.LC35:
 941 0000 41542B4D 		.ascii	"AT+MQTTSUB=0,\"%s\",1\015\012\000"
 941      51545453 
 941      55423D30 
 941      2C222573 
 941      222C310D 
 942              		.section	.text.Esp32_Mqtt_Subscribe,"ax",%progbits
 943              		.align	1
 944              		.global	Esp32_Mqtt_Subscribe
 945              		.syntax unified
ARM GAS  C:\Users\EMBEDD~1\AppData\Local\Temp\ccpcZo3g.s 			page 21


 946              		.code	16
 947              		.thumb_func
 949              	Esp32_Mqtt_Subscribe:
 950              	.LVL62:
 951              	.LFB456:
 146:Src/espressifAT.c **** 
 147:Src/espressifAT.c **** void Esp32_Mqtt_Subscribe(UART_HandleTypeDef huart, uint8_t *topic)
 148:Src/espressifAT.c **** {
 952              		.loc 1 148 1 is_stmt 1 view -0
 953              		.cfi_startproc
 954              		@ args = 152, pretend = 16, frame = 200
 955              		@ frame_needed = 0, uses_anonymous_args = 0
 956              		.loc 1 148 1 is_stmt 0 view .LVU118
 957 0000 84B0     		sub	sp, sp, #16
 958              	.LCFI27:
 959              		.cfi_def_cfa_offset 16
 960 0002 00B5     		push	{lr}
 961              	.LCFI28:
 962              		.cfi_def_cfa_offset 20
 963              		.cfi_offset 14, -20
 964 0004 B3B0     		sub	sp, sp, #204
 965              	.LCFI29:
 966              		.cfi_def_cfa_offset 224
 967 0006 3490     		str	r0, [sp, #208]
 968 0008 3591     		str	r1, [sp, #212]
 969 000a 3692     		str	r2, [sp, #216]
 970 000c 3793     		str	r3, [sp, #220]
 149:Src/espressifAT.c ****     uint8_t messages[200];
 971              		.loc 1 149 5 is_stmt 1 view .LVU119
 150:Src/espressifAT.c **** 	sprintf((char*)messages, "AT+MQTTSUB=0,\"%s\",1\r\n", topic); 
 972              		.loc 1 150 2 view .LVU120
 973 000e 599A     		ldr	r2, [sp, #356]
 974 0010 0949     		ldr	r1, .L54
 975 0012 6846     		mov	r0, sp
 976 0014 FFF7FEFF 		bl	sprintf
 977              	.LVL63:
 151:Src/espressifAT.c ****     HAL_UART_Transmit(&huart, messages, strlen((char*)messages), 100); 
 978              		.loc 1 151 5 view .LVU121
 979              		.loc 1 151 41 is_stmt 0 view .LVU122
 980 0018 6846     		mov	r0, sp
 981 001a FFF7FEFF 		bl	strlen
 982              	.LVL64:
 983              		.loc 1 151 5 view .LVU123
 984 001e 82B2     		uxth	r2, r0
 985 0020 6423     		movs	r3, #100
 986 0022 6946     		mov	r1, sp
 987 0024 34A8     		add	r0, sp, #208
 988 0026 FFF7FEFF 		bl	HAL_UART_Transmit
 989              	.LVL65:
 152:Src/espressifAT.c **** 	HAL_Delay(_ms_);
 990              		.loc 1 152 2 is_stmt 1 view .LVU124
 991 002a 6420     		movs	r0, #100
 992 002c FFF7FEFF 		bl	HAL_Delay
 993              	.LVL66:
 153:Src/espressifAT.c **** }
 994              		.loc 1 153 1 is_stmt 0 view .LVU125
 995 0030 33B0     		add	sp, sp, #204
ARM GAS  C:\Users\EMBEDD~1\AppData\Local\Temp\ccpcZo3g.s 			page 22


 996              		@ sp needed
 997 0032 08BC     		pop	{r3}
 998 0034 04B0     		add	sp, sp, #16
 999 0036 1847     		bx	r3
 1000              	.L55:
 1001              		.align	2
 1002              	.L54:
 1003 0038 00000000 		.word	.LC35
 1004              		.cfi_endproc
 1005              	.LFE456:
 1007              		.section	.rodata.Esp32_Mqtt_Publish.str1.4,"aMS",%progbits,1
 1008              		.align	2
 1009              	.LC37:
 1010 0000 41542B4D 		.ascii	"AT+MQTTPUBRAW=0,\"%s\",%d,1,0\015\012\000"
 1010      51545450 
 1010      55425241 
 1010      573D302C 
 1010      22257322 
 1011              		.section	.text.Esp32_Mqtt_Publish,"ax",%progbits
 1012              		.align	1
 1013              		.global	Esp32_Mqtt_Publish
 1014              		.syntax unified
 1015              		.code	16
 1016              		.thumb_func
 1018              	Esp32_Mqtt_Publish:
 1019              	.LVL67:
 1020              	.LFB457:
 154:Src/espressifAT.c **** 
 155:Src/espressifAT.c **** void Esp32_Mqtt_Publish(UART_HandleTypeDef huart, uint8_t *recv_buf, uint8_t *topic, uint8_t *msg)
 156:Src/espressifAT.c **** {
 1021              		.loc 1 156 1 is_stmt 1 view -0
 1022              		.cfi_startproc
 1023              		@ args = 160, pretend = 16, frame = 104
 1024              		@ frame_needed = 0, uses_anonymous_args = 0
 1025              		.loc 1 156 1 is_stmt 0 view .LVU127
 1026 0000 84B0     		sub	sp, sp, #16
 1027              	.LCFI30:
 1028              		.cfi_def_cfa_offset 16
 1029 0002 70B5     		push	{r4, r5, r6, lr}
 1030              	.LCFI31:
 1031              		.cfi_def_cfa_offset 32
 1032              		.cfi_offset 4, -32
 1033              		.cfi_offset 5, -28
 1034              		.cfi_offset 6, -24
 1035              		.cfi_offset 14, -20
 1036 0004 9AB0     		sub	sp, sp, #104
 1037              	.LCFI32:
 1038              		.cfi_def_cfa_offset 136
 1039 0006 1E90     		str	r0, [sp, #120]
 1040 0008 1F91     		str	r1, [sp, #124]
 1041 000a 2092     		str	r2, [sp, #128]
 1042 000c 2193     		str	r3, [sp, #132]
 1043 000e 439E     		ldr	r6, [sp, #268]
 1044 0010 459D     		ldr	r5, [sp, #276]
 157:Src/espressifAT.c ****     uint16_t timeout = 2000; 
 1045              		.loc 1 157 5 is_stmt 1 view .LVU128
 1046              	.LVL68:
ARM GAS  C:\Users\EMBEDD~1\AppData\Local\Temp\ccpcZo3g.s 			page 23


 158:Src/espressifAT.c **** 
 159:Src/espressifAT.c ****     uint8_t messages[100];
 1047              		.loc 1 159 5 view .LVU129
 160:Src/espressifAT.c **** 	sprintf((char*)messages, "AT+MQTTPUBRAW=0,\"%s\",%d,1,0\r\n", topic, strlen((char*)msg)); 
 1048              		.loc 1 160 2 view .LVU130
 1049 0012 2800     		movs	r0, r5
 1050 0014 FFF7FEFF 		bl	strlen
 1051              	.LVL69:
 1052 0018 0300     		movs	r3, r0
 1053 001a 449A     		ldr	r2, [sp, #272]
 1054 001c 1949     		ldr	r1, .L62
 1055 001e 01A8     		add	r0, sp, #4
 1056 0020 FFF7FEFF 		bl	sprintf
 1057              	.LVL70:
 161:Src/espressifAT.c ****     HAL_UART_Transmit(&huart, messages, strlen((char*)messages), 100); 
 1058              		.loc 1 161 5 view .LVU131
 1059              		.loc 1 161 41 is_stmt 0 view .LVU132
 1060 0024 01A8     		add	r0, sp, #4
 1061 0026 FFF7FEFF 		bl	strlen
 1062              	.LVL71:
 1063              		.loc 1 161 5 view .LVU133
 1064 002a 82B2     		uxth	r2, r0
 1065 002c 6423     		movs	r3, #100
 1066 002e 01A9     		add	r1, sp, #4
 1067 0030 1EA8     		add	r0, sp, #120
 1068 0032 FFF7FEFF 		bl	HAL_UART_Transmit
 1069              	.LVL72:
 162:Src/espressifAT.c ****     HAL_Delay(200); 
 1070              		.loc 1 162 5 is_stmt 1 view .LVU134
 1071 0036 C820     		movs	r0, #200
 1072 0038 FFF7FEFF 		bl	HAL_Delay
 1073              	.LVL73:
 157:Src/espressifAT.c **** 
 1074              		.loc 1 157 14 is_stmt 0 view .LVU135
 1075 003c FA24     		movs	r4, #250
 1076 003e E400     		lsls	r4, r4, #3
 1077              	.LVL74:
 1078              	.L57:
 163:Src/espressifAT.c ****   
 164:Src/espressifAT.c ****     while(1)
 1079              		.loc 1 164 5 is_stmt 1 view .LVU136
 165:Src/espressifAT.c ****     {
 166:Src/espressifAT.c ****         if(strstr((char*)recv_buf, ">")) 
 1080              		.loc 1 166 9 view .LVU137
 1081              		.loc 1 166 12 is_stmt 0 view .LVU138
 1082 0040 3E21     		movs	r1, #62
 1083 0042 3000     		movs	r0, r6
 1084 0044 FFF7FEFF 		bl	strchr
 1085              	.LVL75:
 1086              		.loc 1 166 11 view .LVU139
 1087 0048 0028     		cmp	r0, #0
 1088 004a 09D1     		bne	.L61
 167:Src/espressifAT.c ****         {
 168:Src/espressifAT.c ****         	HAL_UART_Transmit(&huart, (uint8_t*)msg, strlen((char*)msg), 100); 
 169:Src/espressifAT.c ****         	break; 
 170:Src/espressifAT.c ****         }
 171:Src/espressifAT.c ****         
ARM GAS  C:\Users\EMBEDD~1\AppData\Local\Temp\ccpcZo3g.s 			page 24


 172:Src/espressifAT.c ****         HAL_Delay(1); 
 1089              		.loc 1 172 9 is_stmt 1 view .LVU140
 1090 004c 0120     		movs	r0, #1
 1091 004e FFF7FEFF 		bl	HAL_Delay
 1092              	.LVL76:
 173:Src/espressifAT.c ****         timeout--; 
 1093              		.loc 1 173 9 view .LVU141
 1094              		.loc 1 173 16 is_stmt 0 view .LVU142
 1095 0052 013C     		subs	r4, r4, #1
 1096              	.LVL77:
 1097              		.loc 1 173 16 view .LVU143
 1098 0054 A4B2     		uxth	r4, r4
 1099              	.LVL78:
 174:Src/espressifAT.c ****         if(timeout == 0) HAL_NVIC_SystemReset();
 1100              		.loc 1 174 9 is_stmt 1 view .LVU144
 1101              		.loc 1 174 11 is_stmt 0 view .LVU145
 1102 0056 002C     		cmp	r4, #0
 1103 0058 F2D1     		bne	.L57
 1104              		.loc 1 174 26 is_stmt 1 discriminator 1 view .LVU146
 1105 005a FFF7FEFF 		bl	HAL_NVIC_SystemReset
 1106              	.LVL79:
 1107 005e EFE7     		b	.L57
 1108              	.L61:
 168:Src/espressifAT.c ****         	break; 
 1109              		.loc 1 168 10 view .LVU147
 168:Src/espressifAT.c ****         	break; 
 1110              		.loc 1 168 51 is_stmt 0 view .LVU148
 1111 0060 2800     		movs	r0, r5
 1112 0062 FFF7FEFF 		bl	strlen
 1113              	.LVL80:
 168:Src/espressifAT.c ****         	break; 
 1114              		.loc 1 168 10 view .LVU149
 1115 0066 82B2     		uxth	r2, r0
 1116 0068 6423     		movs	r3, #100
 1117 006a 2900     		movs	r1, r5
 1118 006c 1EA8     		add	r0, sp, #120
 1119 006e FFF7FEFF 		bl	HAL_UART_Transmit
 1120              	.LVL81:
 169:Src/espressifAT.c ****         }
 1121              		.loc 1 169 10 is_stmt 1 view .LVU150
 175:Src/espressifAT.c ****     }
 176:Src/espressifAT.c ****     
 177:Src/espressifAT.c ****     HAL_Delay(_ms_); 
 1122              		.loc 1 177 5 view .LVU151
 1123 0072 6420     		movs	r0, #100
 1124 0074 FFF7FEFF 		bl	HAL_Delay
 1125              	.LVL82:
 178:Src/espressifAT.c **** }
 1126              		.loc 1 178 1 is_stmt 0 view .LVU152
 1127 0078 1AB0     		add	sp, sp, #104
 1128              		@ sp needed
 1129              	.LVL83:
 1130              		.loc 1 178 1 view .LVU153
 1131 007a 70BC     		pop	{r4, r5, r6}
 1132 007c 08BC     		pop	{r3}
 1133 007e 04B0     		add	sp, sp, #16
 1134 0080 1847     		bx	r3
ARM GAS  C:\Users\EMBEDD~1\AppData\Local\Temp\ccpcZo3g.s 			page 25


 1135              	.L63:
 1136 0082 C046     		.align	2
 1137              	.L62:
 1138 0084 00000000 		.word	.LC37
 1139              		.cfi_endproc
 1140              	.LFE457:
 1142              		.text
 1143              	.Letext0:
 1144              		.file 2 "c:\\program files (x86)\\gnu arm embedded toolchain\\10 2021.10\\arm-none-eabi\\include\\
 1145              		.file 3 "c:\\program files (x86)\\gnu arm embedded toolchain\\10 2021.10\\arm-none-eabi\\include\\
 1146              		.file 4 "Drivers/CMSIS/Device/ST/STM32G0xx/Include/stm32g070xx.h"
 1147              		.file 5 "Drivers/CMSIS/Device/ST/STM32G0xx/Include/stm32g0xx.h"
 1148              		.file 6 "Drivers/STM32G0xx_HAL_Driver/Inc/stm32g0xx_hal_def.h"
 1149              		.file 7 "Drivers/STM32G0xx_HAL_Driver/Inc/stm32g0xx_hal_dma.h"
 1150              		.file 8 "Drivers/STM32G0xx_HAL_Driver/Inc/stm32g0xx_hal_uart.h"
 1151              		.file 9 "Inc/espressifAT.h"
 1152              		.file 10 "Drivers/STM32G0xx_HAL_Driver/Inc/stm32g0xx_ll_dma.h"
 1153              		.file 11 "c:\\program files (x86)\\gnu arm embedded toolchain\\10 2021.10\\arm-none-eabi\\include\
 1154              		.file 12 "c:\\program files (x86)\\gnu arm embedded toolchain\\10 2021.10\\arm-none-eabi\\include\
 1155              		.file 13 "Drivers/STM32G0xx_HAL_Driver/Inc/stm32g0xx_hal.h"
 1156              		.file 14 "Drivers/STM32G0xx_HAL_Driver/Inc/stm32g0xx_hal_cortex.h"
 1157              		.file 15 "c:\\program files (x86)\\gnu arm embedded toolchain\\10 2021.10\\arm-none-eabi\\include\
 1158              		.file 16 "<built-in>"
ARM GAS  C:\Users\EMBEDD~1\AppData\Local\Temp\ccpcZo3g.s 			page 26

